; ModuleID = '26/1031.c'
source_filename = "26/1031.c"
target datalayout = "e-m:e-p270:32:32-p271:32:32-p272:64:64-i64:64-f80:128-n8:16:32:64-S128"
target triple = "x86_64-pc-linux-gnu"

; Function Attrs: noinline nounwind uwtable
define dso_local i32 @main() #0 {
  %1 = alloca i32, align 4
  %2 = alloca [101 x i8], align 16
  %3 = alloca i32, align 4
  %4 = alloca i8*, align 8
  %5 = alloca i32, align 4
  %6 = alloca i32, align 4
  %7 = alloca i8*, align 8
  store i32 0, i32* %1, align 4
  %8 = getelementptr inbounds [101 x i8], [101 x i8]* %2, i64 0, i64 0
  %9 = call i32 (i8*, ...) bitcast (i32 (...)* @gets to i32 (i8*, ...)*)(i8* %8)
  %10 = getelementptr inbounds [101 x i8], [101 x i8]* %2, i64 0, i64 0
  %11 = call i64 @strlen(i8* %10) #4
  %12 = add i64 %11, 1
  %13 = trunc i64 %12 to i32
  store i32 %13, i32* %3, align 4
  %14 = load i32, i32* %3, align 4
  %15 = sext i32 %14 to i64
  %16 = mul i64 1, %15
  %17 = call noalias i8* @malloc(i64 %16) #5
  store i8* %17, i8** %4, align 8
  store i32 0, i32* %6, align 4
  store i32 0, i32* %5, align 4
  br label %18

18:                                               ; preds = %82, %0
  %19 = load i32, i32* %5, align 4
  %20 = load i32, i32* %3, align 4
  %21 = sub nsw i32 %20, 2
  %22 = icmp slt i32 %19, %21
  br i1 %22, label %23, label %85

23:                                               ; preds = %18
  %24 = load i32, i32* %5, align 4
  %25 = sext i32 %24 to i64
  %26 = getelementptr inbounds [101 x i8], [101 x i8]* %2, i64 0, i64 %25
  %27 = load i8, i8* %26, align 1
  %28 = sext i8 %27 to i32
  %29 = icmp ne i32 %28, 32
  br i1 %29, label %30, label %41

30:                                               ; preds = %23
  %31 = load i32, i32* %5, align 4
  %32 = sext i32 %31 to i64
  %33 = getelementptr inbounds [101 x i8], [101 x i8]* %2, i64 0, i64 %32
  %34 = load i8, i8* %33, align 1
  %35 = load i8*, i8** %4, align 8
  %36 = load i32, i32* %6, align 4
  %37 = sext i32 %36 to i64
  %38 = getelementptr inbounds i8, i8* %35, i64 %37
  store i8 %34, i8* %38, align 1
  %39 = load i32, i32* %6, align 4
  %40 = add nsw i32 %39, 1
  store i32 %40, i32* %6, align 4
  br label %81

41:                                               ; preds = %23
  %42 = load i32, i32* %5, align 4
  %43 = sext i32 %42 to i64
  %44 = getelementptr inbounds [101 x i8], [101 x i8]* %2, i64 0, i64 %43
  %45 = load i8, i8* %44, align 1
  %46 = sext i8 %45 to i32
  %47 = icmp eq i32 %46, 32
  br i1 %47, label %48, label %57

48:                                               ; preds = %41
  %49 = load i32, i32* %5, align 4
  %50 = add nsw i32 %49, 1
  %51 = sext i32 %50 to i64
  %52 = getelementptr inbounds [101 x i8], [101 x i8]* %2, i64 0, i64 %51
  %53 = load i8, i8* %52, align 1
  %54 = sext i8 %53 to i32
  %55 = icmp eq i32 %54, 32
  br i1 %55, label %56, label %57

56:                                               ; preds = %48
  br label %82

57:                                               ; preds = %48, %41
  %58 = load i32, i32* %5, align 4
  %59 = sext i32 %58 to i64
  %60 = getelementptr inbounds [101 x i8], [101 x i8]* %2, i64 0, i64 %59
  %61 = load i8, i8* %60, align 1
  %62 = sext i8 %61 to i32
  %63 = icmp eq i32 %62, 32
  br i1 %63, label %64, label %79

64:                                               ; preds = %57
  %65 = load i32, i32* %5, align 4
  %66 = add nsw i32 %65, 1
  %67 = sext i32 %66 to i64
  %68 = getelementptr inbounds [101 x i8], [101 x i8]* %2, i64 0, i64 %67
  %69 = load i8, i8* %68, align 1
  %70 = sext i8 %69 to i32
  %71 = icmp ne i32 %70, 32
  br i1 %71, label %72, label %79

72:                                               ; preds = %64
  %73 = load i8*, i8** %4, align 8
  %74 = load i32, i32* %6, align 4
  %75 = sext i32 %74 to i64
  %76 = getelementptr inbounds i8, i8* %73, i64 %75
  store i8 32, i8* %76, align 1
  %77 = load i32, i32* %6, align 4
  %78 = add nsw i32 %77, 1
  store i32 %78, i32* %6, align 4
  br label %79

79:                                               ; preds = %72, %64, %57
  br label %80

80:                                               ; preds = %79
  br label %81

81:                                               ; preds = %80, %30
  br label %82

82:                                               ; preds = %81, %56
  %83 = load i32, i32* %5, align 4
  %84 = add nsw i32 %83, 1
  store i32 %84, i32* %5, align 4
  br label %18

85:                                               ; preds = %18
  %86 = load i32, i32* %3, align 4
  %87 = sub nsw i32 %86, 2
  %88 = sext i32 %87 to i64
  %89 = getelementptr inbounds [101 x i8], [101 x i8]* %2, i64 0, i64 %88
  %90 = load i8, i8* %89, align 1
  %91 = load i8*, i8** %4, align 8
  %92 = load i32, i32* %6, align 4
  %93 = sext i32 %92 to i64
  %94 = getelementptr inbounds i8, i8* %91, i64 %93
  store i8 %90, i8* %94, align 1
  %95 = load i8*, i8** %4, align 8
  %96 = load i32, i32* %6, align 4
  %97 = add nsw i32 %96, 1
  %98 = sext i32 %97 to i64
  %99 = getelementptr inbounds i8, i8* %95, i64 %98
  store i8 0, i8* %99, align 1
  %100 = load i32, i32* %6, align 4
  %101 = add nsw i32 %100, 2
  %102 = sext i32 %101 to i64
  %103 = mul i64 1, %102
  %104 = call noalias i8* @malloc(i64 %103) #5
  store i8* %104, i8** %7, align 8
  store i32 0, i32* %5, align 4
  br label %105

105:                                              ; preds = %120, %85
  %106 = load i32, i32* %5, align 4
  %107 = load i32, i32* %6, align 4
  %108 = add nsw i32 %107, 1
  %109 = icmp slt i32 %106, %108
  br i1 %109, label %110, label %123

110:                                              ; preds = %105
  %111 = load i8*, i8** %4, align 8
  %112 = load i32, i32* %5, align 4
  %113 = sext i32 %112 to i64
  %114 = getelementptr inbounds i8, i8* %111, i64 %113
  %115 = load i8, i8* %114, align 1
  %116 = load i8*, i8** %7, align 8
  %117 = load i32, i32* %5, align 4
  %118 = sext i32 %117 to i64
  %119 = getelementptr inbounds i8, i8* %116, i64 %118
  store i8 %115, i8* %119, align 1
  br label %120

120:                                              ; preds = %110
  %121 = load i32, i32* %5, align 4
  %122 = add nsw i32 %121, 1
  store i32 %122, i32* %5, align 4
  br label %105

123:                                              ; preds = %105
  %124 = load i8*, i8** %7, align 8
  %125 = call i32 @puts(i8* %124)
  ret i32 0
}

declare dso_local i32 @gets(...) #1

; Function Attrs: nounwind readonly
declare dso_local i64 @strlen(i8*) #2

; Function Attrs: nounwind
declare dso_local noalias i8* @malloc(i64) #3

declare dso_local i32 @puts(i8*) #1


!llvm.module.flags = !{!0}
!llvm.ident = !{!1}

!0 = !{i32 1, !"wchar_size", i32 4}
!1 = !{!"clang version 10.0.0-4ubuntu1 "}
